Certificate:
    Data:
        Version: 3 (0x2)
        Serial Number: 1 (0x1)
    Signature Algorithm: sha256WithRSAEncryption
        Issuer: C=US, ST=Unset, L=Unset, O=Unset, CN=192.168.100.200
        Validity
            Not Before: Aug 22 12:29:15 2015 GMT
            Not After : Aug 19 12:29:15 2025 GMT
        Subject: C=US, ST=Unset, O=Unset, CN=192.168.100.200
        Subject Public Key Info:
            Public Key Algorithm: rsaEncryption
                Public-Key: (1024 bit)
                Modulus:
                    00:c2:94:82:b3:34:59:37:5a:52:a8:7d:f7:21:cb:
                    36:ad:a5:be:32:99:96:6a:76:46:0b:c5:ad:84:70:
                    e6:06:55:69:3f:f4:a3:5c:be:b2:5d:c5:11:ce:25:
                    e7:78:32:4b:25:eb:c2:2f:ff:88:2b:d2:d1:61:4a:
                    54:bf:00:ed:b5:88:aa:13:7d:da:e9:c3:0b:50:82:
                    6f:60:52:1b:0b:23:7a:56:c0:08:10:94:2c:2d:8f:
                    99:3e:b8:83:08:71:45:38:57:87:52:1d:23:f5:a5:
                    96:dd:c0:91:ac:df:08:53:1c:1f:7f:3f:e2:02:3b:
                    4b:6d:b5:3e:70:65:1e:f6:db
                Exponent: 65537 (0x10001)
        X509v3 extensions:
            X509v3 Basic Constraints: 
                CA:FALSE
            X509v3 Subject Key Identifier: 
                71:BA:E7:AD:A5:DC:5F:DB:C0:B3:26:A0:01:C7:CD:05:92:33:52:F2
            X509v3 Authority Key Identifier: 
                keyid:4E:6C:51:BF:27:28:33:8A:19:45:13:6B:51:56:64:84:22:E2:55:0F

    Signature Algorithm: sha256WithRSAEncryption
         6f:59:03:9c:4e:6a:6b:79:35:0c:97:48:d4:94:af:8e:59:b5:
         59:24:12:49:ed:48:be:4c:b6:20:d9:0e:d7:b0:4f:c4:12:d6:
         39:c6:44:db:0f:de:80:9b:bc:21:28:31:16:87:cd:6b:13:85:
         4e:58:86:d7:7a:5a:da:29:78:9f:4f:63:de:8a:d3:92:bc:5a:
         0c:7c:dc:46:46:66:4d:ee:d1:43:64:8f:4b:35:71:9f:79:a0:
         62:ea:ef:90:9a:b7:e8:f7:bc:0a:67:69:4e:91:50:ec:59:0a:
         43:fd:da:be:69:1e:7b:d6:02:a9:6c:c7:a2:2f:97:a5:16:11:
         a9:7c
-----BEGIN CERTIFICATE-----
MIICYTCCAcqgAwIBAgIBATANBgkqhkiG9w0BAQsFADBXMQswCQYDVQQGEwJVUzEO
MAwGA1UECAwFVW5zZXQxDjAMBgNVBAcMBVVuc2V0MQ4wDAYDVQQKDAVVbnNldDEY
MBYGA1UEAwwPMTkyLjE2OC4xMDAuMjAwMB4XDTE1MDgyMjEyMjkxNVoXDTI1MDgx
OTEyMjkxNVowRzELMAkGA1UEBhMCVVMxDjAMBgNVBAgMBVVuc2V0MQ4wDAYDVQQK
DAVVbnNldDEYMBYGA1UEAwwPMTkyLjE2OC4xMDAuMjAwMIGfMA0GCSqGSIb3DQEB
AQUAA4GNADCBiQKBgQDClIKzNFk3WlKoffchyzatpb4ymZZqdkYLxa2EcOYGVWk/
9KNcvrJdxRHOJed4Mksl68Iv/4gr0tFhSlS/AO21iKoTfdrpwwtQgm9gUhsLI3pW
wAgQlCwtj5k+uIMIcUU4V4dSHSP1pZbdwJGs3whTHB9/P+ICO0tttT5wZR722wID
AQABo00wSzAJBgNVHRMEAjAAMB0GA1UdDgQWBBRxuuetpdxf28CzJqABx80FkjNS
8jAfBgNVHSMEGDAWgBRObFG/JygzihlFE2tRVmSEIuJVDzANBgkqhkiG9w0BAQsF
AAOBgQBvWQOcTmpreTUMl0jUlK+OWbVZJBJJ7Ui+TLYg2Q7XsE/EEtY5xkTbD96A
m7whKDEWh81rE4VOWIbXelraKXifT2PeitOSvFoMfNxGRmZN7tFDZI9LNXGfeaBi
6u+Qmrfo97wKZ2lOkVDsWQpD/dq+aR571gKpbMeiL5elFhGpfA==
-----END CERTIFICATE-----
